target datalayout = "e-m:e-p270:32:32-p271:32:32-p272:64:64-i64:64-i128:128-f80:128-n8:16:32:64-S128"
target triple = "x86_64-pc-linux-gnu"

%struct.TestConfig = type <{ i32, i8, i8, i8, i8, %"class.std::__cxx11::basic_string", %"class.std::__cxx11::basic_string", %"class.std::__cxx11::basic_string", %"class.std::__cxx11::basic_string", %"class.std::__cxx11::basic_string", i8, [7 x i8], %"class.std::__cxx11::basic_string", %"class.std::__cxx11::basic_string", i8, [7 x i8], %"class.std::__cxx11::basic_string", i8, i8, i8, i8, i8, i8, i8, i8, %"class.std::__cxx11::basic_string", %"class.std::__cxx11::basic_string", i8, [7 x i8], %"class.std::__cxx11::basic_string", %"class.std::__cxx11::basic_string", %"class.std::__cxx11::basic_string", %"class.std::__cxx11::basic_string", %"class.std::__cxx11::basic_string", i8, i8, i8, [5 x i8], %"class.std::__cxx11::basic_string", %"class.std::__cxx11::basic_string", %"class.std::__cxx11::basic_string", i8, [7 x i8], %"class.std::__cxx11::basic_string", i8, [7 x i8], %"class.std::__cxx11::basic_string", i32, i32, i32, i8, i8, i8, i8, i8, i8, [6 x i8], %"class.std::__cxx11::basic_string", %"class.std::__cxx11::basic_string", %"class.std::__cxx11::basic_string", i8, [3 x i8], i32, %"class.std::__cxx11::basic_string", %"class.std::__cxx11::basic_string", i8, i8, i8, i8, i8, i8, i8, i8, i8, i8, [6 x i8], %"class.std::__cxx11::basic_string", i8, i8, i8, i8, i8, [3 x i8], %"class.std::__cxx11::basic_string", i32, i8, i8, i8, i8, i32, i8, i8, i8, i8, i32, i8, [3 x i8] }>
%"class.std::__cxx11::basic_string" = type { %"struct.std::__cxx11::basic_string<char>::_Alloc_hider", i64, %union.anon }
%"struct.std::__cxx11::basic_string<char>::_Alloc_hider" = type { ptr }
%union.anon = type { i64, [8 x i8] }

@_ZL14g_config_index = internal global i32 0, align 4
@_ZL24kCustomExtensionContents = internal constant [17 x i8] c"custom extension\00", align 16

; Function Attrs: mustprogress uwtable
define internal noundef ptr @_ZL12GetConfigPtrPK6ssl_st(ptr noundef %0) #6 {
  %2 = alloca ptr, align 8
  store ptr %0, ptr %2, align 8, !tbaa !204
  %3 = load ptr, ptr %2, align 8, !tbaa !204
  %4 = load i32, ptr @_ZL14g_config_index, align 4, !tbaa !6
  %5 = call ptr @SSL_get_ex_data(ptr noundef %3, i32 noundef %4)
  ret ptr %5
}

; Function Attrs: mustprogress uwtable
define internal noundef i32 @_ZL26CustomExtensionAddCallbackP6ssl_stjPPKhPmPiPv(ptr noundef %0, i32 noundef %1, ptr noundef %2, ptr noundef %3, ptr noundef %4, ptr noundef %5) #6 {
  %7 = alloca i32, align 4
  %8 = alloca ptr, align 8
  %9 = alloca i32, align 4
  %10 = alloca ptr, align 8
  %11 = alloca ptr, align 8
  %12 = alloca ptr, align 8
  %13 = alloca ptr, align 8
  store ptr %0, ptr %8, align 8, !tbaa !204
  store i32 %1, ptr %9, align 4, !tbaa !6
  store ptr %2, ptr %10, align 8, !tbaa !10
  store ptr %3, ptr %11, align 8, !tbaa !225
  store ptr %4, ptr %12, align 8, !tbaa !206
  store ptr %5, ptr %13, align 8, !tbaa !25
  %14 = load i32, ptr %9, align 4, !tbaa !6
  %15 = icmp ne i32 %14, 1234
  br i1 %15, label %19, label %16

16:                                               ; preds = %6
  %17 = load ptr, ptr %13, align 8, !tbaa !25
  %18 = icmp ne ptr %17, inttoptr (i64 1234 to ptr)
  br i1 %18, label %19, label %20

19:                                               ; preds = %16, %6
  call void @abort() #21
  unreachable

20:                                               ; preds = %16
  %21 = load ptr, ptr %8, align 8, !tbaa !204
  %22 = call noundef ptr @_ZL12GetConfigPtrPK6ssl_st(ptr noundef %21)
  %23 = getelementptr inbounds nuw %struct.TestConfig, ptr %22, i32 0, i32 73
  %24 = load i8, ptr %23, align 8, !tbaa !70, !range !23, !noundef !24
  %25 = trunc i8 %24 to i1
  br i1 %25, label %26, label %27

26:                                               ; preds = %20
  store i32 0, ptr %7, align 4
  br label %37

27:                                               ; preds = %20
  %28 = load ptr, ptr %8, align 8, !tbaa !204
  %29 = call noundef ptr @_ZL12GetConfigPtrPK6ssl_st(ptr noundef %28)
  %30 = getelementptr inbounds nuw %struct.TestConfig, ptr %29, i32 0, i32 74
  %31 = load i8, ptr %30, align 1, !tbaa !71, !range !23, !noundef !24
  %32 = trunc i8 %31 to i1
  br i1 %32, label %33, label %34

33:                                               ; preds = %27
  store i32 -1, ptr %7, align 4
  br label %37

34:                                               ; preds = %27
  %35 = load ptr, ptr %10, align 8, !tbaa !10
  store ptr @_ZL24kCustomExtensionContents, ptr %35, align 8, !tbaa !13
  %36 = load ptr, ptr %11, align 8, !tbaa !225
  store i64 16, ptr %36, align 8, !tbaa !28
  store i32 1, ptr %7, align 4
  br label %37

37:                                               ; preds = %34, %33, %26
  %38 = load i32, ptr %7, align 4
  ret i32 %38
}