; Function Attrs: mustprogress uwtable
define internal noundef range(i32 -1, 2) i32 @_ZL26CustomExtensionAddCallbackP6ssl_stjPPKhPmPiPv(ptr noundef %0, i32 noundef %1, ptr noundef writeonly captures(none) %2, ptr noundef writeonly captures(none) %3, ptr readnone captures(none) %4, ptr noundef readnone captures(address) %5) #10 {
  %7 = icmp ne i32 %1, 1234
  %8 = icmp ne ptr %5, inttoptr (i64 1234 to ptr)
  %or.cond = or i1 %7, %8
  br i1 %or.cond, label %9, label %10

9:                                                ; preds = %6
  tail call void @abort() #30
  unreachable

10:                                               ; preds = %6
  %11 = load i32, ptr @_ZL14g_config_index, align 4, !tbaa !6
  %12 = tail call noundef ptr @SSL_get_ex_data(ptr noundef %0, i32 noundef %11)
  %13 = getelementptr inbounds nuw i8, ptr %12, i64 904
  %14 = load i8, ptr %13, align 8, !tbaa !163, !range !39, !noundef !40
  %15 = trunc nuw i8 %14 to i1
  br i1 %15, label %23, label %16

16:                                               ; preds = %10
  %17 = load i32, ptr @_ZL14g_config_index, align 4, !tbaa !6
  %18 = tail call noundef ptr @SSL_get_ex_data(ptr noundef %0, i32 noundef %17)
  %19 = getelementptr inbounds nuw i8, ptr %18, i64 905
  %20 = load i8, ptr %19, align 1, !tbaa !164, !range !39, !noundef !40
  %21 = trunc nuw i8 %20 to i1
  br i1 %21, label %23, label %22

22:                                               ; preds = %16
  store ptr @_ZL24kCustomExtensionContents, ptr %2, align 8, !tbaa !32
  store i64 16, ptr %3, align 8, !tbaa !144
  br label %23

23:                                               ; preds = %16, %10, %22
  %.0 = phi i32 [ 1, %22 ], [ 0, %10 ], [ -1, %16 ]
  ret i32 %.0
}